(dp0
S'train'
p1
(lp2
F93.27037037037037
aF95.48148148148148
aF96.43888888888888
aF96.96296296296296
aF97.32777777777778
aF97.46296296296296
aF97.73703703703704
aF97.99814814814815
aF97.92777777777778
aF98.39074074074074
aF98.43518518518519
aF98.41666666666667
aF98.72222222222223
aF98.76296296296296
aF98.57777777777778
aF99.13888888888889
aF99.22777777777777
aF99.25740740740741
aF99.31296296296296
aF99.28888888888889
aF99.34444444444445
aF99.3537037037037
aF99.38148148148149
aF99.37777777777778
aF99.3962962962963
aF99.40555555555555
aF99.42407407407407
aF99.42407407407407
aF99.44074074074074
aF99.43888888888888
aF99.43333333333334
aF99.45
aF99.44814814814815
aF99.44814814814815
aF99.44444444444444
aF99.44444444444444
aF99.4462962962963
aF99.4462962962963
aF99.4462962962963
aF99.4462962962963
aF99.4462962962963
aF99.4462962962963
aF99.4462962962963
aF99.44814814814815
aF99.44814814814815
aF99.44814814814815
aF99.44814814814815
aF99.44814814814815
aF99.44814814814815
aF99.44814814814815
aF99.44814814814815
aF99.44814814814815
aF99.44814814814815
aF99.44814814814815
aF99.44814814814815
aF99.44814814814815
aF99.44814814814815
aF99.44814814814815
aF99.44814814814815
aF99.44814814814815
aF99.44814814814815
aF99.44814814814815
aF99.44814814814815
aF99.44814814814815
aF99.44814814814815
aF99.44814814814815
aF99.44814814814815
aF99.44814814814815
aF99.44814814814815
aF99.44814814814815
aF99.44814814814815
aF99.44814814814815
aF99.44814814814815
aF99.44814814814815
aF99.44814814814815
aF99.44814814814815
aF99.44814814814815
aF99.44814814814815
aF99.44814814814815
aF99.44814814814815
aF99.44814814814815
aF99.44814814814815
aF99.44814814814815
aF99.44814814814815
aF99.44814814814815
aF99.44814814814815
aF99.44814814814815
aF99.44814814814815
aF99.44814814814815
aF99.44814814814815
aF99.44814814814815
aF99.44814814814815
aF99.44814814814815
aF99.44814814814815
aF99.44814814814815
aF99.44814814814815
aF99.44814814814815
aF99.44814814814815
aF99.44814814814815
aF99.44814814814815
asS'valid'
p3
(lp4
F96.94
aF97.51
aF97.99
aF97.99
aF98.14
aF98.15
aF98.24
aF98.12
aF98.43
aF98.19
aF98.26
aF97.97
aF98.32
aF98.27
aF98.38
aF98.4
aF98.48
aF98.38
aF98.51
aF98.51
aF98.59
aF98.48
aF98.52
aF98.48
aF98.48
aF98.59
aF98.58
aF98.52
aF98.51
aF98.53
aF98.52
aF98.49
aF98.49
aF98.5
aF98.49
aF98.48
aF98.47
aF98.48
aF98.48
aF98.48
aF98.49
aF98.49
aF98.5
aF98.5
aF98.5
aF98.5
aF98.5
aF98.5
aF98.5
aF98.5
aF98.5
aF98.5
aF98.5
aF98.5
aF98.5
aF98.5
aF98.5
aF98.5
aF98.5
aF98.5
aF98.5
aF98.5
aF98.5
aF98.5
aF98.5
aF98.5
aF98.5
aF98.5
aF98.5
aF98.5
aF98.5
aF98.5
aF98.5
aF98.5
aF98.5
aF98.5
aF98.5
aF98.5
aF98.5
aF98.5
aF98.5
aF98.5
aF98.5
aF98.5
aF98.5
aF98.5
aF98.5
aF98.5
aF98.5
aF98.5
aF98.5
aF98.5
aF98.5
aF98.5
aF98.5
aF98.5
aF98.5
aF98.5
aF98.5
aF98.5
as.